target datalayout = "e-m:e-p270:32:32-p271:32:32-p272:64:64-i64:64-i128:128-f80:128-n8:16:32:64-S128"
target triple = "x86_64-pc-linux-gnu"

%struct.hm_header_st = type { i8, i64, i16, i64, i64, i32, %struct.dtls1_retransmit_state }
%struct.dtls1_retransmit_state = type { ptr, ptr }
%struct.ssl_connection_st = type { %struct.ssl_st, ptr, i32, ptr, ptr, ptr, i32, ptr, i32, i32, i32, i32, %struct.OSSL_TIME, %struct.OSSL_TIME, %struct.ossl_statem_st, i32, ptr, ptr, i64, i64, i64, %struct.ossl_quic_tls_callbacks_st, ptr, ptr, %struct.anon, ptr, ptr, ptr, i32, ptr, %struct.ssl_dane_st, ptr, ptr, ptr, ptr, i32, [64 x i8], [64 x i8], [64 x i8], [64 x i8], [64 x i8], [64 x i8], [64 x i8], [64 x i8], [64 x i8], [64 x i8], [64 x i8], [64 x i8], ptr, [64 x i8], i64, i32, i64, [32 x i8], ptr, ptr, ptr, i64, ptr, [32 x i8], i64, i32, ptr, ptr, i32, i32, ptr, ptr, ptr, ptr, ptr, i64, ptr, ptr, i64, i32, i32, i32, i64, i32, i32, i64, i64, i64, %struct.anon.1, ptr, i32, ptr, ptr, ptr, i32, ptr, ptr, ptr, i32, i32, i32, i32, ptr, i64, i32, ptr, %struct.srp_ctx_st, ptr, %struct.record_layer_st, ptr, ptr, ptr, ptr, i64, i32, i32, i32, i64, i64, i64, ptr, ptr, ptr, ptr, ptr, i64, ptr, i64, ptr, i64 }
%struct.ssl_st = type { i32, ptr, ptr, ptr, %struct.CRYPTO_REF_COUNT, ptr, %struct.crypto_ex_data_st }
%struct.CRYPTO_REF_COUNT = type { i32 }
%struct.crypto_ex_data_st = type { ptr, ptr }
%struct.OSSL_TIME = type { i64 }
%struct.ossl_statem_st = type { i32, i32, i32, i32, i32, i32, i32, i32, i32, i32, i32, i32, i32, ptr, ptr, ptr, i8 }
%struct.ossl_quic_tls_callbacks_st = type { ptr, ptr, ptr, ptr, ptr, ptr }
%struct.anon = type { i64, [32 x i8], [32 x i8], ptr, ptr, i32, i32, i32, i32, [2 x i8], i32, i32, i32, i32, %struct.anon.0, [64 x i8], i64, [64 x i8], i64, i32, i32, ptr, i64, ptr, i64, i32, i8, i8, i16, ptr, i16 }
%struct.anon.0 = type { [128 x i8], i64, [128 x i8], i64, i64, i32, ptr, ptr, [4 x ptr], [4 x i16], i64, i32, ptr, i64, ptr, i64, ptr, ptr, ptr, i32, i64, ptr, i32, ptr, i64, ptr, i64, ptr, i64, ptr, ptr, ptr, ptr, i64, i64, ptr, ptr, i32, i32, i32, i32 }
%struct.ssl_dane_st = type { ptr, ptr, ptr, ptr, ptr, i32, i32, i32, i64 }
%struct.anon.1 = type { [29 x i8], ptr, ptr, ptr, i32, ptr, i16, i32, %struct.anon.2, i32, i32, i64, ptr, i64, ptr, i64, ptr, i64, ptr, i64, ptr, i64, ptr, ptr, ptr, ptr, ptr, ptr, ptr, i64, ptr, i64, i32, i32, i32, i32, ptr, i64, i32, i8, i32, [4 x i32], i32, i8, i8, i8, i8 }
%struct.anon.2 = type { ptr, ptr, ptr, i64 }
%struct.srp_ctx_st = type { ptr, ptr, ptr, ptr, ptr, ptr, ptr, ptr, ptr, ptr, ptr, ptr, ptr, ptr, i32, i64 }
%struct.record_layer_st = type { ptr, ptr, ptr, ptr, ptr, ptr, ptr, ptr, i64, i32, i64, [4 x i8], i64, i64, i8, ptr, i32, ptr, ptr, ptr, i64, i64, i64, i64, [32 x %struct.tls_record_st] }
%struct.tls_record_st = type { ptr, i32, i8, ptr, ptr, i64, i64, i16, [8 x i8] }
%struct.dtls1_state_st = type { [255 x i8], i64, i32, i16, i16, i16, ptr, ptr, i64, i64, %struct.hm_header_st, %struct.hm_header_st, i32, %struct.OSSL_TIME, i32, i32, ptr }

; Function Attrs: nounwind uwtable
define void @dtls1_set_message_header(ptr noundef %0, i8 noundef zeroext %1, i64 noundef %2, i64 noundef %3, i64 noundef %4) #0 {
  %6 = alloca ptr, align 8
  %7 = alloca i8, align 1
  %8 = alloca i64, align 8
  %9 = alloca i64, align 8
  %10 = alloca i64, align 8
  store ptr %0, ptr %6, align 8, !tbaa !19
  store i8 %1, ptr %7, align 1, !tbaa !21
  store i64 %2, ptr %8, align 8, !tbaa !91
  store i64 %3, ptr %9, align 8, !tbaa !91
  store i64 %4, ptr %10, align 8, !tbaa !91
  %11 = load i64, ptr %9, align 8, !tbaa !91
  %12 = icmp eq i64 %11, 0
  br i1 %12, label %13, label %29

13:                                               ; preds = %5
  %14 = load ptr, ptr %6, align 8, !tbaa !19
  %15 = getelementptr inbounds nuw %struct.ssl_connection_st, ptr %14, i32 0, i32 25
  %16 = load ptr, ptr %15, align 8, !tbaa !80
  %17 = getelementptr inbounds nuw %struct.dtls1_state_st, ptr %16, i32 0, i32 4
  %18 = load i16, ptr %17, align 2, !tbaa !128
  %19 = load ptr, ptr %6, align 8, !tbaa !19
  %20 = getelementptr inbounds nuw %struct.ssl_connection_st, ptr %19, i32 0, i32 25
  %21 = load ptr, ptr %20, align 8, !tbaa !80
  %22 = getelementptr inbounds nuw %struct.dtls1_state_st, ptr %21, i32 0, i32 3
  store i16 %18, ptr %22, align 4, !tbaa !131
  %23 = load ptr, ptr %6, align 8, !tbaa !19
  %24 = getelementptr inbounds nuw %struct.ssl_connection_st, ptr %23, i32 0, i32 25
  %25 = load ptr, ptr %24, align 8, !tbaa !80
  %26 = getelementptr inbounds nuw %struct.dtls1_state_st, ptr %25, i32 0, i32 4
  %27 = load i16, ptr %26, align 2, !tbaa !128
  %28 = add i16 %27, 1
  store i16 %28, ptr %26, align 2, !tbaa !128
  br label %29

29:                                               ; preds = %13, %5
  %30 = load ptr, ptr %6, align 8, !tbaa !19
  %31 = load i8, ptr %7, align 1, !tbaa !21
  %32 = load i64, ptr %8, align 8, !tbaa !91
  %33 = load ptr, ptr %6, align 8, !tbaa !19
  %34 = getelementptr inbounds nuw %struct.ssl_connection_st, ptr %33, i32 0, i32 25
  %35 = load ptr, ptr %34, align 8, !tbaa !80
  %36 = getelementptr inbounds nuw %struct.dtls1_state_st, ptr %35, i32 0, i32 3
  %37 = load i16, ptr %36, align 4, !tbaa !131
  %38 = load i64, ptr %9, align 8, !tbaa !91
  %39 = load i64, ptr %10, align 8, !tbaa !91
  call void @dtls1_set_message_header_int(ptr noundef %30, i8 noundef zeroext %31, i64 noundef %32, i16 noundef zeroext %37, i64 noundef %38, i64 noundef %39)
  ret void
}

; Function Attrs: nounwind uwtable
define internal void @dtls1_set_message_header_int(ptr noundef %0, i8 noundef zeroext %1, i64 noundef %2, i16 noundef zeroext %3, i64 noundef %4, i64 noundef %5) #0 {
  %7 = alloca ptr, align 8
  %8 = alloca i8, align 1
  %9 = alloca i64, align 8
  %10 = alloca i16, align 2
  %11 = alloca i64, align 8
  %12 = alloca i64, align 8
  %13 = alloca ptr, align 8
  store ptr %0, ptr %7, align 8, !tbaa !19
  store i8 %1, ptr %8, align 1, !tbaa !21
  store i64 %2, ptr %9, align 8, !tbaa !91
  store i16 %3, ptr %10, align 2, !tbaa !132
  store i64 %4, ptr %11, align 8, !tbaa !91
  store i64 %5, ptr %12, align 8, !tbaa !91
  call void @llvm.lifetime.start.p0(i64 8, ptr %13) #6
  %14 = load ptr, ptr %7, align 8, !tbaa !19
  %15 = getelementptr inbounds nuw %struct.ssl_connection_st, ptr %14, i32 0, i32 25
  %16 = load ptr, ptr %15, align 8, !tbaa !80
  %17 = getelementptr inbounds nuw %struct.dtls1_state_st, ptr %16, i32 0, i32 10
  store ptr %17, ptr %13, align 8, !tbaa !100
  %18 = load i8, ptr %8, align 1, !tbaa !21
  %19 = load ptr, ptr %13, align 8, !tbaa !100
  %20 = getelementptr inbounds nuw %struct.hm_header_st, ptr %19, i32 0, i32 0
  store i8 %18, ptr %20, align 8, !tbaa !103
  %21 = load i64, ptr %9, align 8, !tbaa !91
  %22 = load ptr, ptr %13, align 8, !tbaa !100
  %23 = getelementptr inbounds nuw %struct.hm_header_st, ptr %22, i32 0, i32 1
  store i64 %21, ptr %23, align 8, !tbaa !104
  %24 = load i16, ptr %10, align 2, !tbaa !132
  %25 = load ptr, ptr %13, align 8, !tbaa !100
  %26 = getelementptr inbounds nuw %struct.hm_header_st, ptr %25, i32 0, i32 2
  store i16 %24, ptr %26, align 8, !tbaa !105
  %27 = load i64, ptr %11, align 8, !tbaa !91
  %28 = load ptr, ptr %13, align 8, !tbaa !100
  %29 = getelementptr inbounds nuw %struct.hm_header_st, ptr %28, i32 0, i32 3
  store i64 %27, ptr %29, align 8, !tbaa !110
  %30 = load i64, ptr %12, align 8, !tbaa !91
  %31 = load ptr, ptr %13, align 8, !tbaa !100
  %32 = getelementptr inbounds nuw %struct.hm_header_st, ptr %31, i32 0, i32 4
  store i64 %30, ptr %32, align 8, !tbaa !111
  call void @llvm.lifetime.end.p0(i64 8, ptr %13) #6
  ret void
}

; Function Attrs: nounwind uwtable
define i32 @dtls1_set_handshake_header(ptr noundef %0, ptr noundef %1, i32 noundef %2) #0 {
  %4 = alloca i32, align 4
  %5 = alloca ptr, align 8
  %6 = alloca ptr, align 8
  %7 = alloca i32, align 4
  %8 = alloca ptr, align 8
  %9 = alloca i32, align 4
  store ptr %0, ptr %5, align 8, !tbaa !19
  store ptr %1, ptr %6, align 8, !tbaa !129
  store i32 %2, ptr %7, align 4, !tbaa !22
  call void @llvm.lifetime.start.p0(i64 8, ptr %8) #6
  %10 = load i32, ptr %7, align 4, !tbaa !22
  %11 = icmp eq i32 %10, 257
  br i1 %11, label %12, label %33

12:                                               ; preds = %3
  %13 = load ptr, ptr %5, align 8, !tbaa !19
  %14 = getelementptr inbounds nuw %struct.ssl_connection_st, ptr %13, i32 0, i32 25
  %15 = load ptr, ptr %14, align 8, !tbaa !80
  %16 = getelementptr inbounds nuw %struct.dtls1_state_st, ptr %15, i32 0, i32 4
  %17 = load i16, ptr %16, align 2, !tbaa !128
  %18 = load ptr, ptr %5, align 8, !tbaa !19
  %19 = getelementptr inbounds nuw %struct.ssl_connection_st, ptr %18, i32 0, i32 25
  %20 = load ptr, ptr %19, align 8, !tbaa !80
  %21 = getelementptr inbounds nuw %struct.dtls1_state_st, ptr %20, i32 0, i32 3
  store i16 %17, ptr %21, align 4, !tbaa !131
  %22 = load ptr, ptr %5, align 8, !tbaa !19
  %23 = load ptr, ptr %5, align 8, !tbaa !19
  %24 = getelementptr inbounds nuw %struct.ssl_connection_st, ptr %23, i32 0, i32 25
  %25 = load ptr, ptr %24, align 8, !tbaa !80
  %26 = getelementptr inbounds nuw %struct.dtls1_state_st, ptr %25, i32 0, i32 3
  %27 = load i16, ptr %26, align 4, !tbaa !131
  call void @dtls1_set_message_header_int(ptr noundef %22, i8 noundef zeroext 1, i64 noundef 0, i16 noundef zeroext %27, i64 noundef 0, i64 noundef 0)
  %28 = load ptr, ptr %6, align 8, !tbaa !129
  %29 = call i32 @WPACKET_put_bytes__(ptr noundef %28, i64 noundef 1, i64 noundef 1)
  %30 = icmp ne i32 %29, 0
  br i1 %30, label %32, label %31

31:                                               ; preds = %12
  store i32 0, ptr %4, align 4
  store i32 1, ptr %9, align 4
  br label %47

32:                                               ; preds = %12
  br label %46

33:                                               ; preds = %3
  %34 = load ptr, ptr %5, align 8, !tbaa !19
  %35 = load i32, ptr %7, align 4, !tbaa !22
  %36 = trunc i32 %35 to i8
  call void @dtls1_set_message_header(ptr noundef %34, i8 noundef zeroext %36, i64 noundef 0, i64 noundef 0, i64 noundef 0)
  %37 = load ptr, ptr %6, align 8, !tbaa !129
  %38 = call i32 @WPACKET_allocate_bytes(ptr noundef %37, i64 noundef 12, ptr noundef %8)
  %39 = icmp ne i32 %38, 0
  br i1 %39, label %40, label %44

40:                                               ; preds = %33
  %41 = load ptr, ptr %6, align 8, !tbaa !129
  %42 = call i32 @WPACKET_start_sub_packet(ptr noundef %41)
  %43 = icmp ne i32 %42, 0
  br i1 %43, label %45, label %44

44:                                               ; preds = %40, %33
  store i32 0, ptr %4, align 4
  store i32 1, ptr %9, align 4
  br label %47

45:                                               ; preds = %40
  br label %46

46:                                               ; preds = %45, %32
  store i32 1, ptr %4, align 4
  store i32 1, ptr %9, align 4
  br label %47

47:                                               ; preds = %46, %44, %31
  call void @llvm.lifetime.end.p0(i64 8, ptr %8) #6
  %48 = load i32, ptr %4, align 4
  ret i32 %48
}