; Function Attrs: nounwind uwtable
define range(i32 0, 2) i32 @dtls1_set_handshake_header(ptr noundef readonly captures(none) %0, ptr noundef %1, i32 noundef %2) local_unnamed_addr #0 {
  %4 = alloca ptr, align 8
  call void @llvm.lifetime.start.p0(i64 8, ptr nonnull %4) #9
  %5 = icmp eq i32 %2, 257
  br i1 %5, label %6, label %17

6:                                                ; preds = %3
  %7 = getelementptr inbounds nuw i8, ptr %0, i64 1264
  %8 = load ptr, ptr %7, align 8, !tbaa !74
  %9 = getelementptr inbounds nuw i8, ptr %8, i64 270
  %10 = load i16, ptr %9, align 2, !tbaa !117
  %11 = getelementptr inbounds nuw i8, ptr %8, i64 268
  store i16 %10, ptr %11, align 4, !tbaa !133
  %12 = getelementptr inbounds nuw i8, ptr %8, i64 312
  store i8 1, ptr %12, align 8, !tbaa !94
  %13 = getelementptr inbounds nuw i8, ptr %8, i64 320
  store i64 0, ptr %13, align 8, !tbaa !96
  %14 = getelementptr inbounds nuw i8, ptr %8, i64 328
  store i16 %10, ptr %14, align 8, !tbaa !97
  %15 = getelementptr inbounds nuw i8, ptr %8, i64 336
  tail call void @llvm.memset.p0.i64(ptr noundef nonnull align 8 dereferenceable(16) %15, i8 0, i64 16, i1 false)
  %16 = tail call i32 @WPACKET_put_bytes__(ptr noundef %1, i64 noundef 1, i64 noundef 1) #9
  %.not12 = icmp eq i32 %16, 0
  br i1 %.not12, label %33, label %32

17:                                               ; preds = %3
  %18 = trunc i32 %2 to i8
  %19 = getelementptr inbounds nuw i8, ptr %0, i64 1264
  %20 = load ptr, ptr %19, align 8, !tbaa !74
  %21 = getelementptr inbounds nuw i8, ptr %20, i64 270
  %22 = load i16, ptr %21, align 2, !tbaa !117
  %23 = getelementptr inbounds nuw i8, ptr %20, i64 268
  store i16 %22, ptr %23, align 4, !tbaa !133
  %24 = add i16 %22, 1
  store i16 %24, ptr %21, align 2, !tbaa !117
  %25 = getelementptr inbounds nuw i8, ptr %20, i64 312
  store i8 %18, ptr %25, align 8, !tbaa !94
  %26 = getelementptr inbounds nuw i8, ptr %20, i64 320
  store i64 0, ptr %26, align 8, !tbaa !96
  %27 = getelementptr inbounds nuw i8, ptr %20, i64 328
  store i16 %22, ptr %27, align 8, !tbaa !97
  %28 = getelementptr inbounds nuw i8, ptr %20, i64 336
  tail call void @llvm.memset.p0.i64(ptr noundef nonnull align 8 dereferenceable(16) %28, i8 0, i64 16, i1 false)
  %29 = call i32 @WPACKET_allocate_bytes(ptr noundef %1, i64 noundef 12, ptr noundef nonnull %4) #9
  %.not = icmp eq i32 %29, 0
  br i1 %.not, label %33, label %30

30:                                               ; preds = %17
  %31 = call i32 @WPACKET_start_sub_packet(ptr noundef %1) #9
  %.not11 = icmp eq i32 %31, 0
  br i1 %.not11, label %33, label %32

32:                                               ; preds = %30, %6
  br label %33

33:                                               ; preds = %17, %30, %6, %32
  %.0 = phi i32 [ 1, %32 ], [ 0, %6 ], [ 0, %30 ], [ 0, %17 ]
  call void @llvm.lifetime.end.p0(i64 8, ptr nonnull %4) #9
  ret i32 %.0
}